(lp1
(dp2
Vdepartid
p3
VpIYiacxmasRRNkdone
p4
sVdepartcode
p5
V
sVlevel
p6
V1
sVchild
p7
(lp8
(dp9
Vdepartid
p10
VbrdPUhiaZCIdone
p11
sVdepartcode
p12
V5458_1552621516345_515364
p13
sVlevel
p14
V2
sVchild
p15
(lp16
(dp17
Vdepartid
p18
VV1hNF7gROAkdone
p19
sVdepartcode
p20
V5458_2018_958645
p21
sVlevel
p22
V5
sVchild
p23
(lp24
(dp25
Vdepartid
p26
V0DogRgWb7vIdone
p27
sVdepartcode
p28
Vcy1
p29
sVlevel
p30
V6
sVjoin_year
p31
V2018
p32
sVwxdepartid
p33
V1413018437
p34
sVparentid
p35
VV1hNF7gROAkdone
p36
sVdepartname
p37
V1\u73ed
p38
sa(dp39
Vdepartid
p40
VOGRjunexqZp5kEdone
p41
sVdepartcode
p42
Vcy2
p43
sVlevel
p44
V6
sVjoin_year
p45
V2018
p46
sVwxdepartid
p47
V1413018439
p48
sVparentid
p49
VV1hNF7gROAkdone
p50
sVdepartname
p51
V2\u73ed
p52
sa(dp53
Vdepartid
p54
V3UPEvF61Zj8done
p55
sVdepartcode
p56
Vcy3
p57
sVlevel
p58
V6
sVjoin_year
p59
V2018
p60
sVwxdepartid
p61
V1413018441
p62
sVparentid
p63
VV1hNF7gROAkdone
p64
sVdepartname
p65
V3\u73ed
p66
sa(dp67
Vdepartid
p68
VCOXEZ206b8cdone
p69
sVdepartcode
p70
Vcy4
p71
sVlevel
p72
V6
sVjoin_year
p73
V2018
p74
sVwxdepartid
p75
V1413018443
p76
sVparentid
p77
VV1hNF7gROAkdone
p78
sVdepartname
p79
V4\u73ed
p80
sa(dp81
Vdepartid
p82
VzNNDdlvMGxMdone
p83
sVdepartcode
p84
Vcy5
p85
sVlevel
p86
V6
sVjoin_year
p87
V2018
p88
sVwxdepartid
p89
V1413018445
p90
sVparentid
p91
VV1hNF7gROAkdone
p92
sVdepartname
p93
V5\u73ed
p94
sa(dp95
Vdepartid
p96
VBxFrCeLFRn8done
p97
sVdepartcode
p98
Vcy6
p99
sVlevel
p100
V6
sVjoin_year
p101
V2018
p102
sVwxdepartid
p103
V1413018447
p104
sVparentid
p105
VV1hNF7gROAkdone
p106
sVdepartname
p107
V6\u73ed
p108
sa(dp109
Vdepartid
p110
V2n2q31fbudkdone
p111
sVdepartcode
p112
Vcy7
p113
sVlevel
p114
V6
sVjoin_year
p115
V2018
p116
sVwxdepartid
p117
V1413018449
p118
sVparentid
p119
VV1hNF7gROAkdone
p120
sVdepartname
p121
V7\u73ed
p122
sa(dp123
Vdepartid
p124
VhXWQ2pKzTDodone
p125
sVdepartcode
p126
Vcy8
p127
sVlevel
p128
V6
sVjoin_year
p129
V2018
p130
sVwxdepartid
p131
V1413018451
p132
sVparentid
p133
VV1hNF7gROAkdone
p134
sVdepartname
p135
V8\u73ed
p136
sa(dp137
Vdepartid
p138
V1G2ZOoJU66kdone
p139
sVdepartcode
p140
Vcy9
p141
sVlevel
p142
V6
sVjoin_year
p143
V2018
p144
sVwxdepartid
p145
V1413018453
p146
sVparentid
p147
VV1hNF7gROAkdone
p148
sVdepartname
p149
V9\u73ed
p150
sa(dp151
Vdepartid
p152
VDpArsRVOJpUdone
p153
sVdepartcode
p154
Vcy10
p155
sVlevel
p156
V6
sVjoin_year
p157
V2018
p158
sVwxdepartid
p159
V1413018455
p160
sVparentid
p161
VV1hNF7gROAkdone
p162
sVdepartname
p163
V10\u73ed
p164
sa(dp165
Vdepartid
p166
VxmaszvKltWgDdYdone
p167
sVdepartcode
p168
Vcy11
p169
sVlevel
p170
V6
sVjoin_year
p171
V2018
p172
sVwxdepartid
p173
V1413018457
p174
sVparentid
p175
VV1hNF7gROAkdone
p176
sVdepartname
p177
V11\u73ed
p178
sa(dp179
Vdepartid
p180
VdebeYjGk4DYdone
p181
sVdepartcode
p182
Vcy12
p183
sVlevel
p184
V6
sVjoin_year
p185
V2018
p186
sVwxdepartid
p187
V1413018459
p188
sVparentid
p189
VV1hNF7gROAkdone
p190
sVdepartname
p191
V12\u73ed
p192
sa(dp193
Vdepartid
p194
VSOrsKYdjuneKqodone
p195
sVdepartcode
p196
Vcy13
p197
sVlevel
p198
V6
sVjoin_year
p199
V2018
p200
sVwxdepartid
p201
V1413018461
p202
sVparentid
p203
VV1hNF7gROAkdone
p204
sVdepartname
p205
V13\u73ed
p206
sa(dp207
Vdepartid
p208
VV1i8CxU9oCodone
p209
sVdepartcode
p210
Vcy14
p211
sVlevel
p212
V6
sVjoin_year
p213
V2018
p214
sVwxdepartid
p215
V1413018463
p216
sVparentid
p217
VV1hNF7gROAkdone
p218
sVdepartname
p219
V14\u73ed
p220
sa(dp221
Vdepartid
p222
VJkYaCEsSRjMdone
p223
sVdepartcode
p224
Vcy15
p225
sVlevel
p226
V6
sVjoin_year
p227
V2018
p228
sVwxdepartid
p229
V1413018465
p230
sVparentid
p231
VV1hNF7gROAkdone
p232
sVdepartname
p233
V15\u73ed
p234
sa(dp235
Vdepartid
p236
VFjunexmaskrw8fdLcdone
p237
sVdepartcode
p238
Vcy16
p239
sVlevel
p240
V6
sVjoin_year
p241
V2018
p242
sVwxdepartid
p243
V1413018467
p244
sVparentid
p245
VV1hNF7gROAkdone
p246
sVdepartname
p247
V16\u73ed
p248
sa(dp249
Vdepartid
p250
V3abhMS28X0Udone
p251
sVdepartcode
p252
Vcy17
p253
sVlevel
p254
V6
sVjoin_year
p255
V2018
p256
sVwxdepartid
p257
V1413018469
p258
sVparentid
p259
VV1hNF7gROAkdone
p260
sVdepartname
p261
V17\u73ed
p262
sasVjoin_year
p263
V2018
p264
sVwxdepartid
p265
V1413018435
p266
sVparentid
p267
VbrdPUhiaZCIdone
p268
sVdepartname
p269
V2018\u7ea7
p270
sasVjoin_year
p271
V2019
p272
sVwxdepartid
p273
V1413018433
p274
sVparentid
p275
VpIYiacxmasRRNkdone
p276
sVdepartname
p277
V\u7fe0\u56ed\u9ad8\u4e2d\u90e8
p278
sa(dp279
Vdepartid
p280
Vi3PET7ysdSodone
p281
sVdepartcode
p282
Vxx
p283
sVlevel
p284
V2
sVchild
p285
(lp286
(dp287
Vdepartid
p288
VzAoYvY2Z14Edone
p289
sVdepartcode
p290
V5458_2015_516326
p291
sVlevel
p292
V5
sVchild
p293
(lp294
(dp295
Vdepartid
p296
V3B22rlgGQz8done
p297
sVdepartcode
p298
V5458_1534314789348_516328
p299
sVlevel
p300
V6
sVjoin_year
p301
V2015
p302
sVwxdepartid
p303
V1413018425
p304
sVparentid
p305
VzAoYvY2Z14Edone
p306
sVdepartname
p307
V1\u73ed
p308
sa(dp309
Vdepartid
p310
VP5cTLJDjuneupEdone
p311
sVdepartcode
p312
Vbj002
p313
sVlevel
p314
V6
sVjoin_year
p315
V2015
p316
sVwxdepartid
p317
V1413018419
p318
sVparentid
p319
VzAoYvY2Z14Edone
p320
sVdepartname
p321
V2\u73ed
p322
sa(dp323
Vdepartid
p324
VpJy8TSlHViEdone
p325
sVdepartcode
p326
V5458_1548054340517_516328
p327
sVlevel
p328
V6
sVjoin_year
p329
V2015
p330
sVwxdepartid
p331
V1413018431
p332
sVparentid
p333
VzAoYvY2Z14Edone
p334
sVdepartname
p335
V5\u73ed
p336
sa(dp337
Vdepartid
p338
VIsWldnoY1Gcdone
p339
sVdepartcode
p340
Vbj003
p341
sVlevel
p342
V6
sVjoin_year
p343
V2015
p344
sVwxdepartid
p345
V1413018421
p346
sVparentid
p347
VzAoYvY2Z14Edone
p348
sVdepartname
p349
V3\u73ed
p350
sa(dp351
Vdepartid
p352
V154j7R0oqXodone
p353
sVdepartcode
p354
Vbj004
p355
sVlevel
p356
V6
sVjoin_year
p357
V2015
p358
sVwxdepartid
p359
V1413018423
p360
sVparentid
p361
VzAoYvY2Z14Edone
p362
sVdepartname
p363
V4\u73ed
p364
sasVjoin_year
p365
V2015
p366
sVwxdepartid
p367
V1413018417
p368
sVparentid
p369
Vi3PET7ysdSodone
p370
sVdepartname
p371
V2015\u7ea7
p372
sa(dp373
Vdepartid
p374
VxNOm5YTAEDAdone
p375
sVdepartcode
p376
V5458_2016_516326
p377
sVlevel
p378
V5
sVjoin_year
p379
V2016
p380
sVwxdepartid
p381
V1413018471
p382
sVparentid
p383
Vi3PET7ysdSodone
p384
sVdepartname
p385
V2016\u7ea7
p386
sasVjoin_year
p387
V2015
p388
sVwxdepartid
p389
V1413018415
p390
sVparentid
p391
VpIYiacxmasRRNkdone
p392
sVdepartname
p393
V\u5c0f\u5b66\u90e8
p394
sa(dp395
Vdepartid
p396
VwuJu5KUASmwdone
p397
sVdepartcode
p398
V5458_1531737922242_515364
p399
sVlevel
p400
V2
sVchild
p401
(lp402
(dp403
Vdepartid
p404
VM38xmasYU8UIE8done
p405
sVdepartcode
p406
V5458_2018_515384
p407
sVlevel
p408
V5
sVchild
p409
(lp410
(dp411
Vdepartid
p412
VRM5mdI7zGlcdone
p413
sVdepartcode
p414
V5458_1531738170943_515387
p415
sVlevel
p416
V6
sVjoin_year
p417
V2018
p418
sVwxdepartid
p419
V1413018413
p420
sVparentid
p421
VM38xmasYU8UIE8done
p422
sVdepartname
p423
V1\u73ed
p424
sasVjoin_year
p425
V2018
p426
sVwxdepartid
p427
V1413018411
p428
sVparentid
p429
VwuJu5KUASmwdone
p430
sVdepartname
p431
V2018\u7ea7
p432
sasVjoin_year
p433
V2018
p434
sVwxdepartid
p435
V1413018408
p436
sVparentid
p437
VpIYiacxmasRRNkdone
p438
sVdepartname
p439
V\u4e2d\u5b66
p440
sasVjoin_year
p441
V
sVwxdepartid
p442
V1413018401
p443
sVparentid
p444
VaVbRJ305nYcdone
p445
sVdepartname
p446
V\u5b66\u751f
p447
sa.